(dp0
Vengine
p1
Vpdflatex
p2
sVpackages
p3
c__builtin__
set
p4
((lp5
Vtikz
p6
aVxcolor
p7
aVwasysym
p8
aVgeometry
p9
aVtextpos
p10
aVlistings
p11
aVtitling
p12
aVlipsum
p13
aVurl
p14
aVmicrotype
p15
aVlmodern
p16
aVenumerate
p17
aVamsfonts
p18
aVgraphicx
p19
atp20
Rp21
sVfiles_with_guttermarks
p22
g4
((lp23
S'lab7.tex'
p24
atp25
Rp26
sVsynctex
p27
I01
s.